; Function Attrs: mustprogress nounwind uwtable
define dso_local void @_ZNK5clang10installapi17InstallAPIVisitor23getMangledCXXVTableNameB5cxx11EPKNS_13CXXRecordDeclE(ptr dead_on_unwind noalias writable sret(%"class.std::__cxx11::basic_string") align 8 %0, ptr noundef nonnull readonly align 8 captures(none) dereferenceable(64) %1, ptr noundef %2) local_unnamed_addr #0 align 2 {
  %4 = alloca %"class.llvm::SmallString", align 8
  %5 = alloca %"class.llvm::raw_svector_ostream", align 8
  %6 = alloca %"class.llvm::Twine", align 8
  %7 = getelementptr inbounds nuw i8, ptr %4, i64 24
  call void @_ZN4llvm15SmallVectorBaseImEC2EPvm(ptr noundef nonnull align 8 dereferenceable(280) %4, ptr noundef nonnull %7, i64 noundef 256) #16
  %8 = getelementptr inbounds nuw i8, ptr %5, i64 8
  store i32 2, ptr %8, align 8
  %9 = getelementptr inbounds nuw i8, ptr %5, i64 40
  store i8 0, ptr %9, align 8
  %10 = getelementptr inbounds nuw i8, ptr %5, i64 44
  store i32 1, ptr %10, align 4
  %11 = getelementptr inbounds nuw i8, ptr %5, i64 16
  call void @llvm.memset.p0.i64(ptr noundef nonnull align 8 dereferenceable(24) %11, i8 0, i64 24, i1 false)
  store ptr getelementptr inbounds nuw inrange(-16, 112) (i8, ptr @_ZTVN4llvm19raw_svector_ostreamE, i64 16), ptr %5, align 8
  %12 = getelementptr inbounds nuw i8, ptr %5, i64 48
  store ptr %4, ptr %12, align 8
  call void @_ZN4llvm11raw_ostream16SetBufferAndModeEPcmNS0_10BufferKindE(ptr noundef nonnull align 8 dereferenceable(56) %5, ptr noundef null, i64 noundef 0, i32 noundef 0) #16
  %13 = getelementptr inbounds nuw i8, ptr %1, i64 40
  %14 = load ptr, ptr %13, align 8
  %15 = load ptr, ptr %14, align 8
  %16 = getelementptr inbounds nuw i8, ptr %15, i64 104
  %17 = load ptr, ptr %16, align 8
  call void %17(ptr noundef nonnull align 8 dereferenceable(128) %14, ptr noundef %2, ptr noundef nonnull align 8 dereferenceable(48) %5) #16
  %18 = getelementptr inbounds nuw i8, ptr %6, i64 32
  store i8 5, ptr %18, align 8
  %19 = getelementptr inbounds nuw i8, ptr %6, i64 33
  store i8 1, ptr %19, align 1
  %20 = load ptr, ptr %4, align 8
  store ptr %20, ptr %6, align 8
  %21 = call noundef i64 @_ZNK4llvm15SmallVectorBaseImE4sizeEv(ptr noundef nonnull align 8 dereferenceable(24) %4) #16
  %22 = getelementptr inbounds nuw i8, ptr %6, i64 8
  store i64 %21, ptr %22, align 8
  call void @_ZNK5clang10installapi17InstallAPIVisitor21getBackendMangledNameB5cxx11EN4llvm5TwineE(ptr dead_on_unwind writable sret(%"class.std::__cxx11::basic_string") align 8 %0, ptr noundef nonnull align 8 dereferenceable(64) %1, ptr noundef nonnull byval(%"class.llvm::Twine") align 8 %6)
  call void @_ZN4llvm11raw_ostreamD2Ev(ptr noundef nonnull align 8 dereferenceable(56) %5) #16
  %23 = call noundef i64 @_ZNK4llvm15SmallVectorBaseImE4sizeEv(ptr noundef nonnull align 8 dereferenceable(280) %4) #16
  %24 = load ptr, ptr %4, align 8
  %25 = icmp eq ptr %24, %7
  br i1 %25, label %_ZN4llvm11SmallStringILj256EED2Ev.exit, label %26

26:                                               ; preds = %3
  call void @free(ptr noundef %24) #16
  br label %_ZN4llvm11SmallStringILj256EED2Ev.exit

_ZN4llvm11SmallStringILj256EED2Ev.exit:           ; preds = %3, %26
  ret void
}